Certificate:
    Data:
        Version: 3 (0x2)
        Serial Number:
            d8:8e:5f:4d:5f:64:cf:3b:37:a7:65:01:de:a3:0f:b8
        Signature Algorithm: sha256WithRSAEncryption
        Issuer: CN=Easy-RSA CA
        Validity
            Not Before: Feb 10 17:24:02 2025 GMT
            Not After : May 16 17:24:02 2027 GMT
        Subject: CN=cliente1
        Subject Public Key Info:
            Public Key Algorithm: rsaEncryption
                Public-Key: (2048 bit)
                Modulus:
                    00:bb:62:58:67:c5:ee:cc:4b:fa:b2:38:18:b9:9c:
                    53:f3:14:6f:84:d3:f1:60:f1:c5:7e:7a:57:2f:bc:
                    c5:86:63:b9:8f:38:64:e6:d4:c2:31:62:d6:c8:2d:
                    b3:9e:a3:e8:b7:09:a1:2b:3b:4d:a0:e4:db:ef:36:
                    db:dd:ed:11:bb:83:5b:2e:2f:9c:fd:2f:f3:95:76:
                    1b:3f:e6:7e:21:3c:fc:2f:40:96:32:70:9a:7a:94:
                    43:b3:f5:f1:14:6a:6d:76:36:5b:ad:32:95:d6:83:
                    8e:96:29:ac:0f:87:ba:f0:81:a8:99:97:28:0b:5d:
                    4a:6d:72:6e:b5:bd:fa:85:8b:37:43:a6:42:e0:8b:
                    ed:10:9f:3e:6f:fb:ae:09:da:25:5d:47:ed:e8:ed:
                    e6:3b:85:45:3f:af:80:ae:d5:29:82:1b:a7:6d:76:
                    d3:d0:aa:3b:0b:df:14:6c:ff:31:b3:cb:20:d3:8c:
                    8f:bb:1b:49:dd:05:cf:22:e3:9c:4d:b2:71:95:6d:
                    c3:17:e5:37:7c:29:49:77:ba:9d:28:07:11:6d:7d:
                    73:56:95:c3:4a:22:83:f7:50:40:18:e0:81:78:6f:
                    a4:06:82:c6:d3:32:79:dc:ff:b7:a0:c0:c0:95:40:
                    2d:06:9d:d9:ce:93:f6:dd:a2:a0:03:a8:c1:8a:7f:
                    c6:6f
                Exponent: 65537 (0x10001)
        X509v3 extensions:
            X509v3 Basic Constraints: 
                CA:FALSE
            X509v3 Subject Key Identifier: 
                F9:56:9F:31:25:B5:5C:77:40:57:08:41:01:D9:74:BF:EB:DE:29:26
            X509v3 Authority Key Identifier: 
                keyid:DA:33:C2:3B:A2:59:CE:87:55:E7:C1:F0:7A:9E:C8:98:51:5D:08:56
                DirName:/CN=Easy-RSA CA
                serial:66:1A:05:97:71:52:69:7A:F7:61:03:74:2E:52:3D:79:4C:4B:91:AE
            X509v3 Extended Key Usage: 
                TLS Web Client Authentication
            X509v3 Key Usage: 
                Digital Signature
    Signature Algorithm: sha256WithRSAEncryption
    Signature Value:
        a2:9e:4e:37:e2:6d:08:74:ba:7c:bc:ca:e5:f3:75:c2:b5:44:
        02:b5:da:dc:a1:14:ba:46:7b:05:20:42:fc:ab:08:3b:32:b6:
        dd:03:f2:37:3d:ad:a1:bc:f8:0e:47:4e:ce:d8:93:1a:cc:16:
        1d:1e:89:8e:40:dd:17:54:b6:88:1b:a9:eb:59:a2:4c:56:f9:
        b5:43:23:d0:9f:80:29:ee:b7:16:4a:5e:9d:9c:b3:b2:2f:4b:
        98:4b:41:59:0f:3f:ce:62:f1:b1:98:81:7a:cd:3d:4e:f7:e7:
        14:a8:c7:e8:88:81:43:8d:de:c5:be:0a:49:9e:c3:20:b1:6e:
        86:de:1d:6f:0c:91:92:63:f7:f2:c7:e7:84:28:0c:6e:45:b3:
        c0:af:36:75:d7:17:48:7b:c9:f8:56:3b:59:b1:47:4c:4e:6e:
        6b:ad:5c:e6:31:d3:20:62:81:c1:e8:cc:28:12:44:11:75:63:
        0d:4e:56:b7:ff:9d:b1:af:86:69:78:c7:bd:19:26:49:e2:4e:
        6a:83:68:8b:a9:c2:b3:8c:ea:79:3a:b8:eb:51:7c:59:ac:1e:
        0e:8e:a0:e6:64:b3:46:6e:e6:b5:d0:a1:43:88:6e:aa:b0:4c:
        ea:57:04:e8:b4:f7:2d:68:42:7e:aa:76:19:f8:e2:1a:45:40:
        98:17:f7:ce
-----BEGIN CERTIFICATE-----
MIIDVzCCAj+gAwIBAgIRANiOX01fZM87N6dlAd6jD7gwDQYJKoZIhvcNAQELBQAw
FjEUMBIGA1UEAwwLRWFzeS1SU0EgQ0EwHhcNMjUwMjEwMTcyNDAyWhcNMjcwNTE2
MTcyNDAyWjATMREwDwYDVQQDDAhjbGllbnRlMTCCASIwDQYJKoZIhvcNAQEBBQAD
ggEPADCCAQoCggEBALtiWGfF7sxL+rI4GLmcU/MUb4TT8WDxxX56Vy+8xYZjuY84
ZObUwjFi1sgts56j6LcJoSs7TaDk2+82293tEbuDWy4vnP0v85V2Gz/mfiE8/C9A
ljJwmnqUQ7P18RRqbXY2W60yldaDjpYprA+HuvCBqJmXKAtdSm1ybrW9+oWLN0Om
QuCL7RCfPm/7rgnaJV1H7ejt5juFRT+vgK7VKYIbp21209CqOwvfFGz/MbPLINOM
j7sbSd0FzyLjnE2ycZVtwxflN3wpSXe6nSgHEW19c1aVw0oig/dQQBjggXhvpAaC
xtMyedz/t6DAwJVALQad2c6T9t2ioAOowYp/xm8CAwEAAaOBojCBnzAJBgNVHRME
AjAAMB0GA1UdDgQWBBT5Vp8xJbVcd0BXCEEB2XS/694pJjBRBgNVHSMESjBIgBTa
M8I7olnOh1XnwfB6nsiYUV0IVqEapBgwFjEUMBIGA1UEAwwLRWFzeS1SU0EgQ0GC
FGYaBZdxUml692EDdC5SPXlMS5GuMBMGA1UdJQQMMAoGCCsGAQUFBwMCMAsGA1Ud
DwQEAwIHgDANBgkqhkiG9w0BAQsFAAOCAQEAop5ON+JtCHS6fLzK5fN1wrVEArXa
3KEUukZ7BSBC/KsIOzK23QPyNz2tobz4DkdOztiTGswWHR6JjkDdF1S2iBup61mi
TFb5tUMj0J+AKe63FkpenZyzsi9LmEtBWQ8/zmLxsZiBes09TvfnFKjH6IiBQ43e
xb4KSZ7DILFuht4dbwyRkmP38sfnhCgMbkWzwK82ddcXSHvJ+FY7WbFHTE5ua61c
5jHTIGKBwejMKBJEEXVjDU5Wt/+dsa+GaXjHvRkmSeJOaoNoi6nCs4zqeTq461F8
WaweDo6g5mSzRm7mtdChQ4huqrBM6lcE6LT3LWhCfqp2GfjiGkVAmBf3zg==
-----END CERTIFICATE-----
